ccopy_reg
_reconstructor
p0
(cPhysicsTools.HeppyCore.framework.config
DataComponent
p1
c__builtin__
object
p2
Ntp3
Rp4
(dp5
S'files'
p6
(lp7
S'root://cms-xrd-global.cern.ch//store/data/Run2017D/SingleElectron/MINIAOD/PromptReco-v1/000/302/031/00000/105643A1-328F-E711-943D-02163E014641.root'
p8
asS'isEmbed'
p9
I00
sS'name'
p10
S'SingleElectron_Run2017D_PromptReco_v1_Chunk0'
p11
sS'isData'
p12
I01
sS'triggers'
p13
(lp14
sS'run_range'
p15
(I294927
I302663
tp16
sS'dataset_entries'
p17
I51579218
sS'dataset'
p18
S'/SingleElectron/Run2017D-PromptReco-v1/MINIAOD'
p19
sS'json'
p20
S'Cert_294927-302663_13TeV_PromptReco_Collisions17_JSON.txt'
p21
sS'globalTag'
p22
S'Summer15_25nsV6_DATA'
p23
sS'vetoTriggers'
p24
(lp25
sS'isMC'
p26
I00
sS'tree_name'
p27
NsS'splitFactor'
p28
I2
sS'intLumi'
p29
I1
sb.
